target datalayout = "e-m:e-p270:32:32-p271:32:32-p272:64:64-i64:64-i128:128-f80:128-n8:16:32:64-S128"
target triple = "x86_64-pc-linux-gnu"

%"class.llvm::ConstantData" = type { %"class.llvm::Constant" }
%"class.llvm::Constant" = type { %"class.llvm::User" }
%"class.llvm::User" = type { %"class.llvm::Value" }
%"class.llvm::Value" = type { i8, i8, i16, i32, ptr, ptr }
%"class.llvm::ConstantDataSequential" = type { %"class.llvm::ConstantData", ptr, %"class.std::unique_ptr.6" }
%"class.std::unique_ptr.6" = type { %"struct.std::__uniq_ptr_data.7" }
%"struct.std::__uniq_ptr_data.7" = type { %"class.std::__uniq_ptr_impl.8" }
%"class.std::__uniq_ptr_impl.8" = type { %"class.std::tuple.9" }
%"class.std::tuple.9" = type { %"struct.std::_Tuple_impl.10" }
%"struct.std::_Tuple_impl.10" = type { %"struct.std::_Head_base.13" }
%"struct.std::_Head_base.13" = type { ptr }
%"class.llvm::ConstantDataVector" = type <{ %"class.llvm::ConstantDataSequential", i8, [7 x i8] }>

; Function Attrs: mustprogress nounwind uwtable
define dso_local noundef zeroext i1 @_ZNK4llvm18ConstantDataVector7isSplatEv(ptr noundef nonnull align 8 dereferenceable(48) %0) #1 align 2 {
  %2 = alloca ptr, align 8
  store ptr %0, ptr %2, align 8
  %3 = load ptr, ptr %2, align 8
  %4 = getelementptr inbounds nuw %"class.llvm::ConstantDataVector", ptr %3, i32 0, i32 1
  %5 = load i8, ptr %4, align 8
  %6 = and i8 %5, 1
  %7 = trunc i8 %6 to i1
  br i1 %7, label %20, label %8

8:                                                ; preds = %1
  %9 = getelementptr inbounds nuw %"class.llvm::ConstantDataVector", ptr %3, i32 0, i32 1
  %10 = load i8, ptr %9, align 8
  %11 = and i8 %10, -2
  %12 = or i8 %11, 1
  store i8 %12, ptr %9, align 8
  %13 = call noundef zeroext i1 @_ZNK4llvm18ConstantDataVector11isSplatDataEv(ptr noundef nonnull align 8 dereferenceable(48) %3)
  %14 = getelementptr inbounds nuw %"class.llvm::ConstantDataVector", ptr %3, i32 0, i32 1
  %15 = zext i1 %13 to i8
  %16 = load i8, ptr %14, align 8
  %17 = shl i8 %15, 1
  %18 = and i8 %16, -3
  %19 = or i8 %18, %17
  store i8 %19, ptr %14, align 8
  br label %20

20:                                               ; preds = %8, %1
  %21 = getelementptr inbounds nuw %"class.llvm::ConstantDataVector", ptr %3, i32 0, i32 1
  %22 = load i8, ptr %21, align 8
  %23 = lshr i8 %22, 1
  %24 = and i8 %23, 1
  %25 = trunc i8 %24 to i1
  ret i1 %25
}

; Function Attrs: mustprogress nounwind uwtable
define dso_local noundef ptr @_ZNK4llvm18ConstantDataVector13getSplatValueEv(ptr noundef nonnull align 8 dereferenceable(48) %0) #1 align 2 {
  %2 = alloca ptr, align 8
  store ptr %0, ptr %2, align 8
  %3 = load ptr, ptr %2, align 8
  %4 = call noundef zeroext i1 @_ZNK4llvm18ConstantDataVector7isSplatEv(ptr noundef nonnull align 8 dereferenceable(48) %3)
  br i1 %4, label %5, label %7

5:                                                ; preds = %1
  %6 = call noundef ptr @_ZNK4llvm22ConstantDataSequential20getElementAsConstantEj(ptr noundef nonnull align 8 dereferenceable(40) %3, i32 noundef 0)
  br label %8

7:                                                ; preds = %1
  br label %8

8:                                                ; preds = %7, %5
  %9 = phi ptr [ %6, %5 ], [ null, %7 ]
  ret ptr %9
}