; Function Attrs: mustprogress nounwind uwtable
define dso_local noundef ptr @_ZNK4llvm18ConstantDataVector13getSplatValueEv(ptr noundef nonnull align 8 dereferenceable(48) %0) local_unnamed_addr #0 align 2 {
  %2 = getelementptr inbounds nuw i8, ptr %0, i64 40
  %3 = load i8, ptr %2, align 8
  %4 = trunc i8 %3 to i1
  br i1 %4, label %_ZNK4llvm18ConstantDataVector7isSplatEv.exit, label %5

5:                                                ; preds = %1
  %6 = or i8 %3, 1
  store i8 %6, ptr %2, align 8
  %7 = tail call noundef zeroext i1 @_ZNK4llvm18ConstantDataVector11isSplatDataEv(ptr noundef nonnull align 8 dereferenceable(48) %0)
  %8 = load i8, ptr %2, align 8
  %9 = select i1 %7, i8 2, i8 0
  %10 = and i8 %8, -3
  %11 = or disjoint i8 %10, %9
  store i8 %11, ptr %2, align 8
  br label %_ZNK4llvm18ConstantDataVector7isSplatEv.exit

_ZNK4llvm18ConstantDataVector7isSplatEv.exit:     ; preds = %1, %5
  %12 = phi i8 [ %11, %5 ], [ %3, %1 ]
  %13 = and i8 %12, 2
  %.not = icmp eq i8 %13, 0
  br i1 %.not, label %16, label %14

14:                                               ; preds = %_ZNK4llvm18ConstantDataVector7isSplatEv.exit
  %15 = tail call noundef ptr @_ZNK4llvm22ConstantDataSequential20getElementAsConstantEj(ptr noundef nonnull align 8 dereferenceable(40) %0, i32 noundef 0)
  br label %16

16:                                               ; preds = %_ZNK4llvm18ConstantDataVector7isSplatEv.exit, %14
  %17 = phi ptr [ %15, %14 ], [ null, %_ZNK4llvm18ConstantDataVector7isSplatEv.exit ]
  ret ptr %17
}